; Function Attrs: nofree nounwind uwtable
define internal void @laa_threshold_conversion_fn(ptr noundef writeonly captures(none) %0, i16 noundef zeroext %1) #1 {
  %3 = zext i16 %1 to i32
  %4 = uitofp i16 %1 to double
  %5 = fmul double %4, -1.000000e+02
  %6 = fptrunc double %5 to float
  %7 = fpext float %6 to double
  %8 = tail call i32 (ptr, i64, ptr, ...) @snprintf(ptr noundef nonnull dereferenceable(1) %0, i64 noundef 240, ptr noundef nonnull @.str.2381, double noundef %7, i32 noundef %3) #7
  ret void
}